target datalayout = "e-m:e-p270:32:32-p271:32:32-p272:64:64-i64:64-i128:128-f80:128-n8:16:32:64-S128"
target triple = "x86_64-pc-linux-gnu"

%"struct.zmq::socks_basic_auth_request_t" = type { %"class.std::__cxx11::basic_string", %"class.std::__cxx11::basic_string" }
%"class.std::__cxx11::basic_string" = type { %"struct.std::__cxx11::basic_string<char>::_Alloc_hider", i64, %union.anon }
%"struct.std::__cxx11::basic_string<char>::_Alloc_hider" = type { ptr }
%union.anon = type { i64, [8 x i8] }
%"class.zmq::socks_basic_auth_request_encoder_t" = type <{ i64, i64, [513 x i8], [7 x i8] }>

; Function Attrs: noinline noreturn nounwind uwtable
define linkonce_odr hidden void @__clang_call_terminate(ptr noundef %0) #8 comdat {
  %2 = call ptr @__cxa_begin_catch(ptr %0) #14
  call void @_ZSt9terminatev() #15
  unreachable
}

; Function Attrs: mustprogress nounwind uwtable
define available_externally noundef ptr @_ZNKSt7__cxx1112basic_stringIcSt11char_traitsIcESaIcEE7_M_dataEv(ptr noundef nonnull align 8 dereferenceable(32) %0) #0 align 2 {
  %2 = alloca ptr, align 8
  store ptr %0, ptr %2, align 8, !tbaa !36
  %3 = load ptr, ptr %2, align 8
  %4 = getelementptr inbounds nuw %"class.std::__cxx11::basic_string", ptr %3, i32 0, i32 0
  %5 = getelementptr inbounds nuw %"struct.std::__cxx11::basic_string<char>::_Alloc_hider", ptr %4, i32 0, i32 0
  %6 = load ptr, ptr %5, align 8, !tbaa !89
  ret ptr %6
}

; Function Attrs: mustprogress nounwind uwtable
define available_externally noundef ptr @_ZNKSt7__cxx1112basic_stringIcSt11char_traitsIcESaIcEE5c_strEv(ptr noundef nonnull align 8 dereferenceable(32) %0) #0 align 2 personality ptr @__gxx_personality_v0 {
  %2 = alloca ptr, align 8
  store ptr %0, ptr %2, align 8, !tbaa !36
  %3 = load ptr, ptr %2, align 8
  %4 = invoke noundef ptr @_ZNKSt7__cxx1112basic_stringIcSt11char_traitsIcESaIcEE7_M_dataEv(ptr noundef nonnull align 8 dereferenceable(32) %3)
          to label %5 unwind label %6

5:                                                ; preds = %1
  ret ptr %4

6:                                                ; preds = %1
  %7 = landingpad { ptr, i32 }
          catch ptr null
  %8 = extractvalue { ptr, i32 } %7, 0
  call void @__clang_call_terminate(ptr %8) #15
  unreachable
}

; Function Attrs: mustprogress nounwind uwtable
define available_externally noundef i64 @_ZNKSt7__cxx1112basic_stringIcSt11char_traitsIcESaIcEE4sizeEv(ptr noundef nonnull align 8 dereferenceable(32) %0) #0 align 2 {
  %2 = alloca ptr, align 8
  store ptr %0, ptr %2, align 8, !tbaa !36
  %3 = load ptr, ptr %2, align 8
  %4 = getelementptr inbounds nuw %"class.std::__cxx11::basic_string", ptr %3, i32 0, i32 1
  %5 = load i64, ptr %4, align 8, !tbaa !38
  ret i64 %5
}

; Function Attrs: mustprogress nounwind uwtable
define void @_ZN3zmq34socks_basic_auth_request_encoder_t6encodeERKNS_26socks_basic_auth_request_tE(ptr noundef nonnull align 8 dereferenceable(529) %0, ptr noundef nonnull align 8 dereferenceable(64) %1) #0 align 2 {
  %3 = alloca ptr, align 8
  %4 = alloca ptr, align 8
  %5 = alloca ptr, align 8
  store ptr %0, ptr %3, align 8, !tbaa !41
  store ptr %1, ptr %4, align 8, !tbaa !34
  %6 = load ptr, ptr %3, align 8
  call void @llvm.lifetime.start.p0(i64 8, ptr %5) #14
  %7 = getelementptr inbounds nuw %"class.zmq::socks_basic_auth_request_encoder_t", ptr %6, i32 0, i32 2
  %8 = getelementptr inbounds [513 x i8], ptr %7, i64 0, i64 0
  store ptr %8, ptr %5, align 8, !tbaa !12
  %9 = load ptr, ptr %5, align 8, !tbaa !12
  %10 = getelementptr inbounds nuw i8, ptr %9, i32 1
  store ptr %10, ptr %5, align 8, !tbaa !12
  store i8 1, ptr %9, align 1, !tbaa !8
  %11 = load ptr, ptr %4, align 8, !tbaa !34
  %12 = getelementptr inbounds nuw %"struct.zmq::socks_basic_auth_request_t", ptr %11, i32 0, i32 0
  %13 = call noundef i64 @_ZNKSt7__cxx1112basic_stringIcSt11char_traitsIcESaIcEE4sizeEv(ptr noundef nonnull align 8 dereferenceable(32) %12) #14
  %14 = trunc i64 %13 to i8
  %15 = load ptr, ptr %5, align 8, !tbaa !12
  %16 = getelementptr inbounds nuw i8, ptr %15, i32 1
  store ptr %16, ptr %5, align 8, !tbaa !12
  store i8 %14, ptr %15, align 1, !tbaa !8
  %17 = load ptr, ptr %5, align 8, !tbaa !12
  %18 = load ptr, ptr %4, align 8, !tbaa !34
  %19 = getelementptr inbounds nuw %"struct.zmq::socks_basic_auth_request_t", ptr %18, i32 0, i32 0
  %20 = call noundef ptr @_ZNKSt7__cxx1112basic_stringIcSt11char_traitsIcESaIcEE5c_strEv(ptr noundef nonnull align 8 dereferenceable(32) %19) #14
  %21 = load ptr, ptr %4, align 8, !tbaa !34
  %22 = getelementptr inbounds nuw %"struct.zmq::socks_basic_auth_request_t", ptr %21, i32 0, i32 0
  %23 = call noundef i64 @_ZNKSt7__cxx1112basic_stringIcSt11char_traitsIcESaIcEE4sizeEv(ptr noundef nonnull align 8 dereferenceable(32) %22) #14
  call void @llvm.memcpy.p0.p0.i64(ptr align 1 %17, ptr align 1 %20, i64 %23, i1 false)
  %24 = load ptr, ptr %4, align 8, !tbaa !34
  %25 = getelementptr inbounds nuw %"struct.zmq::socks_basic_auth_request_t", ptr %24, i32 0, i32 0
  %26 = call noundef i64 @_ZNKSt7__cxx1112basic_stringIcSt11char_traitsIcESaIcEE4sizeEv(ptr noundef nonnull align 8 dereferenceable(32) %25) #14
  %27 = load ptr, ptr %5, align 8, !tbaa !12
  %28 = getelementptr inbounds nuw i8, ptr %27, i64 %26
  store ptr %28, ptr %5, align 8, !tbaa !12
  %29 = load ptr, ptr %4, align 8, !tbaa !34
  %30 = getelementptr inbounds nuw %"struct.zmq::socks_basic_auth_request_t", ptr %29, i32 0, i32 1
  %31 = call noundef i64 @_ZNKSt7__cxx1112basic_stringIcSt11char_traitsIcESaIcEE4sizeEv(ptr noundef nonnull align 8 dereferenceable(32) %30) #14
  %32 = trunc i64 %31 to i8
  %33 = load ptr, ptr %5, align 8, !tbaa !12
  %34 = getelementptr inbounds nuw i8, ptr %33, i32 1
  store ptr %34, ptr %5, align 8, !tbaa !12
  store i8 %32, ptr %33, align 1, !tbaa !8
  %35 = load ptr, ptr %5, align 8, !tbaa !12
  %36 = load ptr, ptr %4, align 8, !tbaa !34
  %37 = getelementptr inbounds nuw %"struct.zmq::socks_basic_auth_request_t", ptr %36, i32 0, i32 1
  %38 = call noundef ptr @_ZNKSt7__cxx1112basic_stringIcSt11char_traitsIcESaIcEE5c_strEv(ptr noundef nonnull align 8 dereferenceable(32) %37) #14
  %39 = load ptr, ptr %4, align 8, !tbaa !34
  %40 = getelementptr inbounds nuw %"struct.zmq::socks_basic_auth_request_t", ptr %39, i32 0, i32 1
  %41 = call noundef i64 @_ZNKSt7__cxx1112basic_stringIcSt11char_traitsIcESaIcEE4sizeEv(ptr noundef nonnull align 8 dereferenceable(32) %40) #14
  call void @llvm.memcpy.p0.p0.i64(ptr align 1 %35, ptr align 1 %38, i64 %41, i1 false)
  %42 = load ptr, ptr %4, align 8, !tbaa !34
  %43 = getelementptr inbounds nuw %"struct.zmq::socks_basic_auth_request_t", ptr %42, i32 0, i32 1
  %44 = call noundef i64 @_ZNKSt7__cxx1112basic_stringIcSt11char_traitsIcESaIcEE4sizeEv(ptr noundef nonnull align 8 dereferenceable(32) %43) #14
  %45 = load ptr, ptr %5, align 8, !tbaa !12
  %46 = getelementptr inbounds nuw i8, ptr %45, i64 %44
  store ptr %46, ptr %5, align 8, !tbaa !12
  %47 = load ptr, ptr %5, align 8, !tbaa !12
  %48 = getelementptr inbounds nuw %"class.zmq::socks_basic_auth_request_encoder_t", ptr %6, i32 0, i32 2
  %49 = getelementptr inbounds [513 x i8], ptr %48, i64 0, i64 0
  %50 = ptrtoint ptr %47 to i64
  %51 = ptrtoint ptr %49 to i64
  %52 = sub i64 %50, %51
  %53 = getelementptr inbounds nuw %"class.zmq::socks_basic_auth_request_encoder_t", ptr %6, i32 0, i32 0
  store i64 %52, ptr %53, align 8, !tbaa !43
  %54 = getelementptr inbounds nuw %"class.zmq::socks_basic_auth_request_encoder_t", ptr %6, i32 0, i32 1
  store i64 0, ptr %54, align 8, !tbaa !45
  call void @llvm.lifetime.end.p0(i64 8, ptr %5) #14
  ret void
}